; Function Attrs: null_pointer_is_valid sspstrong uwtable
define internal i32 @samr_dissect_element_QuerySecurity_sdbuf__(ptr noundef %0, i32 noundef %1, ptr noundef %2, ptr noundef %3, ptr noundef %4, ptr noundef %5) #0 {
  %7 = alloca i64, align 8
  call void @llvm.lifetime.start.p0(i64 8, ptr nonnull %7) #5
  %8 = getelementptr inbounds nuw i8, ptr %4, i64 25
  %9 = load i8, ptr %8, align 1, !range !6, !noundef !7
  %10 = trunc nuw i8 %9 to i1
  br i1 %10, label %cnf_dissect_sec_desc_buf.exit, label %11

11:                                               ; preds = %6
  %12 = load i32, ptr @hf_samr_sec_desc_buf_len, align 4
  %13 = call i32 @dissect_ndr_uint3264(ptr noundef %0, i32 noundef %1, ptr noundef %2, ptr noundef %3, ptr noundef %4, ptr noundef %5, i32 noundef %12, ptr noundef nonnull %7)
  %14 = call i32 @dissect_ndr_pointer(ptr noundef %0, i32 noundef %13, ptr noundef %2, ptr noundef %3, ptr noundef %4, ptr noundef %5, ptr noundef nonnull @cnf_dissect_sec_desc_buf_, i32 noundef 2, ptr noundef nonnull @.str.1287, i32 noundef -1)
  br label %cnf_dissect_sec_desc_buf.exit

cnf_dissect_sec_desc_buf.exit:                    ; preds = %6, %11
  %.0.i = phi i32 [ %14, %11 ], [ %1, %6 ]
  call void @llvm.lifetime.end.p0(i64 8, ptr nonnull %7) #5
  ret i32 %.0.i
}